target datalayout = "e-m:e-p270:32:32-p271:32:32-p272:64:64-i64:64-i128:128-f80:128-n8:16:32:64-S128"
target triple = "x86_64-pc-linux-gnu"

%struct.Curl_cftype = type { ptr, i32, i32, ptr, ptr, ptr, ptr, ptr, ptr, ptr, ptr, ptr, ptr, ptr, ptr, ptr }
%struct.Curl_cfilter = type { ptr, ptr, ptr, ptr, i32, i8 }
%struct.cf_call_data = type { ptr }
%struct.cf_h2_proxy_ctx = type { ptr, %struct.cf_call_data, %struct.bufq, %struct.bufq, %struct.tunnel_stream, i32, i32, i8 }
%struct.bufq = type { ptr, ptr, ptr, ptr, i64, i64, i64, i32 }
%struct.tunnel_stream = type { ptr, %struct.bufq, %struct.bufq, ptr, i32, i32, i32, i8 }
%struct.Curl_easy = type { i32, i64, i64, ptr, %struct.Curl_llist_node, %struct.Curl_llist_node, i32, i32, %struct.Curl_message, %struct.easy_pollset, %struct.Names, ptr, ptr, ptr, %struct.SingleRequest, %struct.UserDefined, ptr, ptr, %struct.Progress, %struct.UrlState, ptr, %struct.PureInfo, %struct.curl_tlssessioninfo }
%struct.Curl_llist_node = type { ptr, ptr, ptr, ptr }
%struct.Curl_message = type { %struct.Curl_llist_node, %struct.CURLMsg }
%struct.CURLMsg = type { i32, ptr, %union.anon }
%union.anon = type { ptr }
%struct.easy_pollset = type { [5 x i32], i32, [5 x i8] }
%struct.Names = type { ptr, i32 }
%struct.SingleRequest = type <{ i64, i64, i64, i64, %struct.curltime, i32, i32, i32, i32, i64, i32, i32, i32, i32, ptr, ptr, %struct.bufq, i64, i64, ptr, ptr, %union.anon.0, ptr, i8, i32, [3 x i8] }>
%struct.curltime = type { i64, i32 }
%union.anon.0 = type { ptr }
%struct.UserDefined = type <{ ptr, ptr, ptr, ptr, ptr, ptr, i16, [6 x i8], i64, i64, i64, ptr, ptr, i64, i16, i16, [4 x i8], ptr, ptr, ptr, ptr, ptr, ptr, ptr, ptr, ptr, ptr, ptr, ptr, ptr, ptr, ptr, ptr, ptr, ptr, ptr, ptr, ptr, ptr, ptr, i32, i32, i32, i32, i32, [4 x i8], i64, i64, i64, i64, i64, i64, i64, i64, ptr, ptr, %struct.curl_mimepart, ptr, ptr, i64, i8, i8, i8, [5 x i8], %struct.ssl_config_data, %struct.ssl_config_data, ptr, i16, i8, i8, [4 x i8], %struct.ssl_general_config, i32, i32, i32, [4 x i8], ptr, ptr, i8, [7 x i8], i64, i8, i8, i8, i8, i32, ptr, ptr, ptr, i8, i8, [2 x i8], i32, [63 x ptr], [8 x ptr], i32, i32, i32, [4 x i8], ptr, ptr, ptr, ptr, ptr, i8, [3 x i8], i32, i32, i32, i64, %struct.Curl_data_priority, ptr, ptr, i64, ptr, i64, ptr, ptr, ptr, i8, [3 x i8], i32, i8, i8, i64, [6 x i8] }>
%struct.curl_mimepart = type { ptr, ptr, i32, i32, ptr, ptr, ptr, ptr, ptr, ptr, ptr, ptr, ptr, ptr, ptr, i64, %struct.mime_state, ptr, %struct.mime_encoder_state, i64 }
%struct.mime_state = type { i32, ptr, i64 }
%struct.mime_encoder_state = type { i64, i64, i64, [256 x i8] }
%struct.ssl_config_data = type { %struct.ssl_primary_config, i64, ptr, ptr, ptr, ptr, ptr, ptr, ptr, i16 }
%struct.ssl_primary_config = type { ptr, ptr, ptr, ptr, ptr, ptr, ptr, ptr, ptr, ptr, ptr, ptr, i8, i32, i8, i8 }
%struct.ssl_general_config = type { i64, i32 }
%struct.Curl_data_priority = type { ptr, ptr, i32, i8 }
%struct.Progress = type { i64, %struct.pgrs_dir, %struct.pgrs_dir, i64, i64, i32, i32, i64, i64, i64, i64, i64, i64, i64, i64, i64, %struct.curltime, %struct.curltime, %struct.curltime, %struct.curltime, [6 x i64], [6 x %struct.curltime], i32, i8 }
%struct.pgrs_dir = type { i64, i64, i64, %struct.pgrs_measure }
%struct.pgrs_measure = type { %struct.curltime, i64 }
%struct.UrlState = type { %struct.curltime, i64, i64, %struct.dynbuf, ptr, i64, ptr, i32, i32, i32, ptr, i64, i32, i64, i32, ptr, %struct.digestdata, %struct.digestdata, %struct.auth, %struct.auth, %struct.Curl_async, ptr, %struct.curltime, %struct.Curl_tree, %struct.Curl_llist, [15 x %struct.time_node], ptr, ptr, i64, i64, %struct.Curl_data_priority, ptr, ptr, ptr, %struct.urlpieces, ptr, ptr, ptr, ptr, ptr, i64, %struct.dynbuf, %struct.Curl_llist, [2 x %struct.curl_header], ptr, i32, ptr, ptr, %struct.store_netrc, %struct.dynamically_allocated_data, i8, i8, i8, i8, i32 }
%struct.digestdata = type { ptr, ptr, ptr, ptr, ptr, ptr, i32, i8, i8 }
%struct.auth = type { i64, i64, i64, i8 }
%struct.Curl_async = type { ptr, ptr, ptr, ptr, i32, i32, i8 }
%struct.Curl_tree = type { ptr, ptr, ptr, ptr, %struct.curltime, ptr }
%struct.time_node = type { %struct.Curl_llist_node, %struct.curltime, i32 }
%struct.urlpieces = type { ptr, ptr, ptr, ptr, ptr, ptr, ptr, ptr }
%struct.dynbuf = type { ptr, i64, i64, i64 }
%struct.Curl_llist = type { ptr, ptr, ptr, i64 }
%struct.curl_header = type { ptr, ptr, i64, i64, i32, ptr }
%struct.store_netrc = type { %struct.dynbuf, ptr, i8 }
%struct.dynamically_allocated_data = type { ptr, ptr, ptr, ptr, ptr, ptr, ptr, ptr, ptr, ptr, ptr, ptr, ptr }
%struct.PureInfo = type { i32, i32, i32, i64, i64, i64, i64, i64, ptr, ptr, i64, i32, %struct.ip_quadruple, i32, ptr, i32, %struct.curl_certinfo, i32, i8 }
%struct.ip_quadruple = type { [46 x i8], [46 x i8], i32, i32 }
%struct.curl_certinfo = type { i32, ptr }
%struct.curl_tlssessioninfo = type { i32, ptr }
%struct.curl_trc_feat = type { ptr, i32 }

@.str.49 = private unnamed_addr constant [32 x i8] c"[0] %zu bytes to nghttp2 -> %zd\00", align 1
@.str.50 = private unnamed_addr constant [66 x i8] c"process_pending_input: nghttp2_session_mem_recv() returned %zd:%s\00", align 1
@.str.51 = private unnamed_addr constant [44 x i8] c"[0] all data in connection buffer processed\00", align 1
@.str.52 = private unnamed_addr constant [63 x i8] c"[0] process_pending_input: %zu bytes left in connection buffer\00", align 1

; Function Attrs: nounwind uwtable
define internal i32 @proxy_h2_process_pending_input(ptr noundef %0, ptr noundef %1, ptr noundef %2) #0 {
  %4 = alloca i32, align 4
  %5 = alloca ptr, align 8
  %6 = alloca ptr, align 8
  %7 = alloca ptr, align 8
  %8 = alloca ptr, align 8
  %9 = alloca ptr, align 8
  %10 = alloca i64, align 8
  %11 = alloca i64, align 8
  %12 = alloca i32, align 4
  store ptr %0, ptr %5, align 8, !tbaa !4
  store ptr %1, ptr %6, align 8, !tbaa !9
  store ptr %2, ptr %7, align 8, !tbaa !116
  call void @llvm.lifetime.start.p0(i64 8, ptr %8) #6
  %13 = load ptr, ptr %5, align 8, !tbaa !4
  %14 = getelementptr inbounds nuw %struct.Curl_cfilter, ptr %13, i32 0, i32 2
  %15 = load ptr, ptr %14, align 8, !tbaa !11
  store ptr %15, ptr %8, align 8, !tbaa !16
  call void @llvm.lifetime.start.p0(i64 8, ptr %9) #6
  call void @llvm.lifetime.start.p0(i64 8, ptr %10) #6
  call void @llvm.lifetime.start.p0(i64 8, ptr %11) #6
  br label %16

16:                                               ; preds = %176, %3
  %17 = load ptr, ptr %8, align 8, !tbaa !16
  %18 = getelementptr inbounds nuw %struct.cf_h2_proxy_ctx, ptr %17, i32 0, i32 2
  %19 = call zeroext i1 @Curl_bufq_peek(ptr noundef %18, ptr noundef %9, ptr noundef %10)
  br i1 %19, label %20, label %177

20:                                               ; preds = %16
  %21 = load ptr, ptr %8, align 8, !tbaa !16
  %22 = getelementptr inbounds nuw %struct.cf_h2_proxy_ctx, ptr %21, i32 0, i32 0
  %23 = load ptr, ptr %22, align 8, !tbaa !40
  %24 = load ptr, ptr %9, align 8, !tbaa !117
  %25 = load i64, ptr %10, align 8, !tbaa !41
  %26 = call i64 @nghttp2_session_mem_recv(ptr noundef %23, ptr noundef %24, i64 noundef %25)
  store i64 %26, ptr %11, align 8, !tbaa !41
  br label %27

27:                                               ; preds = %20
  %28 = load ptr, ptr %6, align 8, !tbaa !9
  %29 = icmp ne ptr %28, null
  br i1 %29, label %30, label %68

30:                                               ; preds = %27
  %31 = load ptr, ptr %6, align 8, !tbaa !9
  %32 = getelementptr inbounds nuw %struct.Curl_easy, ptr %31, i32 0, i32 15
  %33 = getelementptr inbounds nuw %struct.UserDefined, ptr %32, i32 0, i32 124
  %34 = load i64, ptr %33, align 2
  %35 = lshr i64 %34, 27
  %36 = and i64 %35, 1
  %37 = trunc i64 %36 to i32
  %38 = icmp ne i32 %37, 0
  br i1 %38, label %39, label %68

39:                                               ; preds = %30
  %40 = load ptr, ptr %6, align 8, !tbaa !9
  %41 = getelementptr inbounds nuw %struct.Curl_easy, ptr %40, i32 0, i32 19
  %42 = getelementptr inbounds nuw %struct.UrlState, ptr %41, i32 0, i32 47
  %43 = load ptr, ptr %42, align 8, !tbaa !49
  %44 = icmp ne ptr %43, null
  br i1 %44, label %45, label %53

45:                                               ; preds = %39
  %46 = load ptr, ptr %6, align 8, !tbaa !9
  %47 = getelementptr inbounds nuw %struct.Curl_easy, ptr %46, i32 0, i32 19
  %48 = getelementptr inbounds nuw %struct.UrlState, ptr %47, i32 0, i32 47
  %49 = load ptr, ptr %48, align 8, !tbaa !49
  %50 = getelementptr inbounds nuw %struct.curl_trc_feat, ptr %49, i32 0, i32 1
  %51 = load i32, ptr %50, align 8, !tbaa !111
  %52 = icmp sge i32 %51, 1
  br i1 %52, label %53, label %68

53:                                               ; preds = %45, %39
  %54 = load ptr, ptr %5, align 8, !tbaa !4
  %55 = icmp ne ptr %54, null
  br i1 %55, label %56, label %68

56:                                               ; preds = %53
  %57 = load ptr, ptr %5, align 8, !tbaa !4
  %58 = getelementptr inbounds nuw %struct.Curl_cfilter, ptr %57, i32 0, i32 0
  %59 = load ptr, ptr %58, align 8, !tbaa !43
  %60 = getelementptr inbounds nuw %struct.Curl_cftype, ptr %59, i32 0, i32 2
  %61 = load i32, ptr %60, align 4, !tbaa !113
  %62 = icmp sge i32 %61, 1
  br i1 %62, label %63, label %68

63:                                               ; preds = %56
  %64 = load ptr, ptr %6, align 8, !tbaa !9
  %65 = load ptr, ptr %5, align 8, !tbaa !4
  %66 = load i64, ptr %10, align 8, !tbaa !41
  %67 = load i64, ptr %11, align 8, !tbaa !41
  call void (ptr, ptr, ptr, ...) @Curl_trc_cf_infof(ptr noundef %64, ptr noundef %65, ptr noundef @.str.49, i64 noundef %66, i64 noundef %67)
  br label %68

68:                                               ; preds = %63, %56, %53, %45, %30, %27
  br label %69

69:                                               ; preds = %68
  br label %70

70:                                               ; preds = %69
  %71 = load i64, ptr %11, align 8, !tbaa !41
  %72 = icmp slt i64 %71, 0
  br i1 %72, label %73, label %80

73:                                               ; preds = %70
  %74 = load ptr, ptr %6, align 8, !tbaa !9
  %75 = load i64, ptr %11, align 8, !tbaa !41
  %76 = load i64, ptr %11, align 8, !tbaa !41
  %77 = trunc i64 %76 to i32
  %78 = call ptr @nghttp2_strerror(i32 noundef %77)
  call void (ptr, ptr, ...) @Curl_failf(ptr noundef %74, ptr noundef @.str.50, i64 noundef %75, ptr noundef %78)
  %79 = load ptr, ptr %7, align 8, !tbaa !116
  store i32 56, ptr %79, align 4, !tbaa !22
  store i32 -1, ptr %4, align 4
  store i32 1, ptr %12, align 4
  br label %178

80:                                               ; preds = %70
  %81 = load ptr, ptr %8, align 8, !tbaa !16
  %82 = getelementptr inbounds nuw %struct.cf_h2_proxy_ctx, ptr %81, i32 0, i32 2
  %83 = load i64, ptr %11, align 8, !tbaa !41
  call void @Curl_bufq_skip(ptr noundef %82, i64 noundef %83)
  %84 = load ptr, ptr %8, align 8, !tbaa !16
  %85 = getelementptr inbounds nuw %struct.cf_h2_proxy_ctx, ptr %84, i32 0, i32 2
  %86 = call zeroext i1 @Curl_bufq_is_empty(ptr noundef %85)
  br i1 %86, label %87, label %130

87:                                               ; preds = %80
  br label %88

88:                                               ; preds = %87
  %89 = load ptr, ptr %6, align 8, !tbaa !9
  %90 = icmp ne ptr %89, null
  br i1 %90, label %91, label %127

91:                                               ; preds = %88
  %92 = load ptr, ptr %6, align 8, !tbaa !9
  %93 = getelementptr inbounds nuw %struct.Curl_easy, ptr %92, i32 0, i32 15
  %94 = getelementptr inbounds nuw %struct.UserDefined, ptr %93, i32 0, i32 124
  %95 = load i64, ptr %94, align 2
  %96 = lshr i64 %95, 27
  %97 = and i64 %96, 1
  %98 = trunc i64 %97 to i32
  %99 = icmp ne i32 %98, 0
  br i1 %99, label %100, label %127

100:                                              ; preds = %91
  %101 = load ptr, ptr %6, align 8, !tbaa !9
  %102 = getelementptr inbounds nuw %struct.Curl_easy, ptr %101, i32 0, i32 19
  %103 = getelementptr inbounds nuw %struct.UrlState, ptr %102, i32 0, i32 47
  %104 = load ptr, ptr %103, align 8, !tbaa !49
  %105 = icmp ne ptr %104, null
  br i1 %105, label %106, label %114

106:                                              ; preds = %100
  %107 = load ptr, ptr %6, align 8, !tbaa !9
  %108 = getelementptr inbounds nuw %struct.Curl_easy, ptr %107, i32 0, i32 19
  %109 = getelementptr inbounds nuw %struct.UrlState, ptr %108, i32 0, i32 47
  %110 = load ptr, ptr %109, align 8, !tbaa !49
  %111 = getelementptr inbounds nuw %struct.curl_trc_feat, ptr %110, i32 0, i32 1
  %112 = load i32, ptr %111, align 8, !tbaa !111
  %113 = icmp sge i32 %112, 1
  br i1 %113, label %114, label %127

114:                                              ; preds = %106, %100
  %115 = load ptr, ptr %5, align 8, !tbaa !4
  %116 = icmp ne ptr %115, null
  br i1 %116, label %117, label %127

117:                                              ; preds = %114
  %118 = load ptr, ptr %5, align 8, !tbaa !4
  %119 = getelementptr inbounds nuw %struct.Curl_cfilter, ptr %118, i32 0, i32 0
  %120 = load ptr, ptr %119, align 8, !tbaa !43
  %121 = getelementptr inbounds nuw %struct.Curl_cftype, ptr %120, i32 0, i32 2
  %122 = load i32, ptr %121, align 4, !tbaa !113
  %123 = icmp sge i32 %122, 1
  br i1 %123, label %124, label %127

124:                                              ; preds = %117
  %125 = load ptr, ptr %6, align 8, !tbaa !9
  %126 = load ptr, ptr %5, align 8, !tbaa !4
  call void (ptr, ptr, ptr, ...) @Curl_trc_cf_infof(ptr noundef %125, ptr noundef %126, ptr noundef @.str.51)
  br label %127

127:                                              ; preds = %124, %117, %114, %106, %91, %88
  br label %128

128:                                              ; preds = %127
  br label %129

129:                                              ; preds = %128
  br label %177

130:                                              ; preds = %80
  br label %131

131:                                              ; preds = %130
  %132 = load ptr, ptr %6, align 8, !tbaa !9
  %133 = icmp ne ptr %132, null
  br i1 %133, label %134, label %173

134:                                              ; preds = %131
  %135 = load ptr, ptr %6, align 8, !tbaa !9
  %136 = getelementptr inbounds nuw %struct.Curl_easy, ptr %135, i32 0, i32 15
  %137 = getelementptr inbounds nuw %struct.UserDefined, ptr %136, i32 0, i32 124
  %138 = load i64, ptr %137, align 2
  %139 = lshr i64 %138, 27
  %140 = and i64 %139, 1
  %141 = trunc i64 %140 to i32
  %142 = icmp ne i32 %141, 0
  br i1 %142, label %143, label %173

143:                                              ; preds = %134
  %144 = load ptr, ptr %6, align 8, !tbaa !9
  %145 = getelementptr inbounds nuw %struct.Curl_easy, ptr %144, i32 0, i32 19
  %146 = getelementptr inbounds nuw %struct.UrlState, ptr %145, i32 0, i32 47
  %147 = load ptr, ptr %146, align 8, !tbaa !49
  %148 = icmp ne ptr %147, null
  br i1 %148, label %149, label %157

149:                                              ; preds = %143
  %150 = load ptr, ptr %6, align 8, !tbaa !9
  %151 = getelementptr inbounds nuw %struct.Curl_easy, ptr %150, i32 0, i32 19
  %152 = getelementptr inbounds nuw %struct.UrlState, ptr %151, i32 0, i32 47
  %153 = load ptr, ptr %152, align 8, !tbaa !49
  %154 = getelementptr inbounds nuw %struct.curl_trc_feat, ptr %153, i32 0, i32 1
  %155 = load i32, ptr %154, align 8, !tbaa !111
  %156 = icmp sge i32 %155, 1
  br i1 %156, label %157, label %173

157:                                              ; preds = %149, %143
  %158 = load ptr, ptr %5, align 8, !tbaa !4
  %159 = icmp ne ptr %158, null
  br i1 %159, label %160, label %173

160:                                              ; preds = %157
  %161 = load ptr, ptr %5, align 8, !tbaa !4
  %162 = getelementptr inbounds nuw %struct.Curl_cfilter, ptr %161, i32 0, i32 0
  %163 = load ptr, ptr %162, align 8, !tbaa !43
  %164 = getelementptr inbounds nuw %struct.Curl_cftype, ptr %163, i32 0, i32 2
  %165 = load i32, ptr %164, align 4, !tbaa !113
  %166 = icmp sge i32 %165, 1
  br i1 %166, label %167, label %173

167:                                              ; preds = %160
  %168 = load ptr, ptr %6, align 8, !tbaa !9
  %169 = load ptr, ptr %5, align 8, !tbaa !4
  %170 = load ptr, ptr %8, align 8, !tbaa !16
  %171 = getelementptr inbounds nuw %struct.cf_h2_proxy_ctx, ptr %170, i32 0, i32 2
  %172 = call i64 @Curl_bufq_len(ptr noundef %171)
  call void (ptr, ptr, ptr, ...) @Curl_trc_cf_infof(ptr noundef %168, ptr noundef %169, ptr noundef @.str.52, i64 noundef %172)
  br label %173

173:                                              ; preds = %167, %160, %157, %149, %134, %131
  br label %174

174:                                              ; preds = %173
  br label %175

175:                                              ; preds = %174
  br label %176

176:                                              ; preds = %175
  br label %16, !llvm.loop !161

177:                                              ; preds = %129, %16
  store i32 0, ptr %4, align 4
  store i32 1, ptr %12, align 4
  br label %178

178:                                              ; preds = %177, %73
  call void @llvm.lifetime.end.p0(i64 8, ptr %11) #6
  call void @llvm.lifetime.end.p0(i64 8, ptr %10) #6
  call void @llvm.lifetime.end.p0(i64 8, ptr %9) #6
  call void @llvm.lifetime.end.p0(i64 8, ptr %8) #6
  %179 = load i32, ptr %4, align 4
  ret i32 %179
}