; Function Attrs: nounwind uwtable
define internal fastcc range(i32 -1, 1) i32 @proxy_h2_process_pending_input(ptr noundef %0, ptr noundef %1, ptr noundef nonnull writeonly captures(none) %2) unnamed_addr #0 {
  %4 = alloca ptr, align 8
  %5 = alloca i64, align 8
  %6 = getelementptr inbounds nuw i8, ptr %0, i64 16
  %7 = load ptr, ptr %6, align 8, !tbaa !4
  call void @llvm.lifetime.start.p0(i64 8, ptr nonnull %4) #7
  call void @llvm.lifetime.start.p0(i64 8, ptr nonnull %5) #7
  %8 = getelementptr inbounds nuw i8, ptr %7, i64 16
  %9 = call zeroext i1 @Curl_bufq_peek(ptr noundef nonnull %8, ptr noundef nonnull %4, ptr noundef nonnull %5) #7
  br i1 %9, label %.lr.ph, label %.loopexit

.lr.ph:                                           ; preds = %3
  %.not = icmp eq ptr %1, null
  %10 = getelementptr inbounds nuw i8, ptr %1, i64 2562
  %11 = getelementptr inbounds nuw i8, ptr %1, i64 4712
  br i1 %.not, label %.lr.ph.split.us, label %.lr.ph.split

.lr.ph.split.us:                                  ; preds = %.lr.ph, %19
  %12 = load ptr, ptr %7, align 8, !tbaa !15
  %13 = load ptr, ptr %4, align 8, !tbaa !39
  %14 = load i64, ptr %5, align 8, !tbaa !123
  %15 = call i64 @nghttp2_session_mem_recv(ptr noundef %12, ptr noundef %13, i64 noundef %14) #7
  %16 = icmp slt i64 %15, 0
  br i1 %16, label %.split.us, label %17

17:                                               ; preds = %.lr.ph.split.us
  call void @Curl_bufq_skip(ptr noundef nonnull %8, i64 noundef %15) #7
  %18 = call zeroext i1 @Curl_bufq_is_empty(ptr noundef nonnull %8) #7
  br i1 %18, label %.loopexit, label %19

19:                                               ; preds = %17
  %20 = call zeroext i1 @Curl_bufq_peek(ptr noundef nonnull %8, ptr noundef nonnull %4, ptr noundef nonnull %5) #7
  br i1 %20, label %.lr.ph.split.us, label %.loopexit, !llvm.loop !149

.lr.ph.split:                                     ; preds = %.lr.ph, %74
  %21 = load ptr, ptr %7, align 8, !tbaa !15
  %22 = load ptr, ptr %4, align 8, !tbaa !39
  %23 = load i64, ptr %5, align 8, !tbaa !123
  %24 = call i64 @nghttp2_session_mem_recv(ptr noundef %21, ptr noundef %22, i64 noundef %23) #7
  %25 = load i64, ptr %10, align 2
  %26 = and i64 %25, 134217728
  %.not50 = icmp eq i64 %26, 0
  br i1 %.not50, label %40, label %27

27:                                               ; preds = %.lr.ph.split
  %28 = load ptr, ptr %11, align 8, !tbaa !108
  %.not51 = icmp eq ptr %28, null
  br i1 %.not51, label %33, label %29

29:                                               ; preds = %27
  %30 = getelementptr inbounds nuw i8, ptr %28, i64 8
  %31 = load i32, ptr %30, align 8, !tbaa !109
  %32 = icmp sgt i32 %31, 0
  br i1 %32, label %33, label %40

33:                                               ; preds = %27, %29
  %34 = load ptr, ptr %0, align 8, !tbaa !111
  %35 = getelementptr inbounds nuw i8, ptr %34, i64 12
  %36 = load i32, ptr %35, align 4, !tbaa !112
  %37 = icmp sgt i32 %36, 0
  br i1 %37, label %38, label %40

38:                                               ; preds = %33
  %39 = load i64, ptr %5, align 8, !tbaa !123
  call void (ptr, ptr, ptr, ...) @Curl_trc_cf_infof(ptr noundef nonnull %1, ptr noundef nonnull %0, ptr noundef nonnull @.str.49, i64 noundef %39, i64 noundef %24) #7
  br label %40

40:                                               ; preds = %38, %33, %29, %.lr.ph.split
  %41 = icmp slt i64 %24, 0
  br i1 %41, label %.split.us, label %44

.split.us:                                        ; preds = %40, %.lr.ph.split.us
  %.us-phi = phi i64 [ %15, %.lr.ph.split.us ], [ %24, %40 ]
  %42 = trunc i64 %.us-phi to i32
  %43 = call ptr @nghttp2_strerror(i32 noundef %42) #7
  call void (ptr, ptr, ...) @Curl_failf(ptr noundef %1, ptr noundef nonnull @.str.50, i64 noundef %.us-phi, ptr noundef %43) #7
  store i32 56, ptr %2, align 4, !tbaa !40
  br label %.loopexit

44:                                               ; preds = %40
  call void @Curl_bufq_skip(ptr noundef nonnull %8, i64 noundef %24) #7
  %45 = call zeroext i1 @Curl_bufq_is_empty(ptr noundef nonnull %8) #7
  %46 = load i64, ptr %10, align 2
  %47 = and i64 %46, 134217728
  %.not54 = icmp eq i64 %47, 0
  br i1 %45, label %.split59.us, label %60

.split59.us:                                      ; preds = %44
  br i1 %.not54, label %.loopexit, label %48

48:                                               ; preds = %.split59.us
  %49 = load ptr, ptr %11, align 8, !tbaa !108
  %.not55 = icmp eq ptr %49, null
  br i1 %.not55, label %54, label %50

50:                                               ; preds = %48
  %51 = getelementptr inbounds nuw i8, ptr %49, i64 8
  %52 = load i32, ptr %51, align 8, !tbaa !109
  %53 = icmp sgt i32 %52, 0
  br i1 %53, label %54, label %.loopexit

54:                                               ; preds = %48, %50
  %55 = load ptr, ptr %0, align 8, !tbaa !111
  %56 = getelementptr inbounds nuw i8, ptr %55, i64 12
  %57 = load i32, ptr %56, align 4, !tbaa !112
  %58 = icmp sgt i32 %57, 0
  br i1 %58, label %59, label %.loopexit

59:                                               ; preds = %54
  call void (ptr, ptr, ptr, ...) @Curl_trc_cf_infof(ptr noundef nonnull %1, ptr noundef nonnull %0, ptr noundef nonnull @.str.51) #7
  br label %.loopexit

60:                                               ; preds = %44
  br i1 %.not54, label %74, label %61

61:                                               ; preds = %60
  %62 = load ptr, ptr %11, align 8, !tbaa !108
  %.not53 = icmp eq ptr %62, null
  br i1 %.not53, label %67, label %63

63:                                               ; preds = %61
  %64 = getelementptr inbounds nuw i8, ptr %62, i64 8
  %65 = load i32, ptr %64, align 8, !tbaa !109
  %66 = icmp sgt i32 %65, 0
  br i1 %66, label %67, label %74

67:                                               ; preds = %61, %63
  %68 = load ptr, ptr %0, align 8, !tbaa !111
  %69 = getelementptr inbounds nuw i8, ptr %68, i64 12
  %70 = load i32, ptr %69, align 4, !tbaa !112
  %71 = icmp sgt i32 %70, 0
  br i1 %71, label %72, label %74

72:                                               ; preds = %67
  %73 = call i64 @Curl_bufq_len(ptr noundef nonnull %8) #7
  call void (ptr, ptr, ptr, ...) @Curl_trc_cf_infof(ptr noundef nonnull %1, ptr noundef nonnull %0, ptr noundef nonnull @.str.52, i64 noundef %73) #7
  br label %74

74:                                               ; preds = %60, %63, %67, %72
  %75 = call zeroext i1 @Curl_bufq_peek(ptr noundef nonnull %8, ptr noundef nonnull %4, ptr noundef nonnull %5) #7
  br i1 %75, label %.lr.ph.split, label %.loopexit, !llvm.loop !149

.loopexit:                                        ; preds = %74, %17, %19, %3, %59, %54, %50, %.split59.us, %.split.us
  %.0 = phi i32 [ -1, %.split.us ], [ 0, %.split59.us ], [ 0, %50 ], [ 0, %54 ], [ 0, %59 ], [ 0, %3 ], [ 0, %19 ], [ 0, %17 ], [ 0, %74 ]
  call void @llvm.lifetime.end.p0(i64 8, ptr nonnull %5) #7
  call void @llvm.lifetime.end.p0(i64 8, ptr nonnull %4) #7
  ret i32 %.0
}